target datalayout = "e-m:e-p270:32:32-p271:32:32-p272:64:64-i64:64-i128:128-f80:128-n8:16:32:64-S128"
target triple = "x86_64-pc-linux-gnu"

%struct.timeval = type { i64, i64 }
%struct.fd_set = type { [16 x i64] }

@.str = private unnamed_addr constant [51 x i8] c"ClamCom: could not get curl active socket info %s\0A\00", align 1
@.str.1 = private unnamed_addr constant [49 x i8] c"ClamCom: TIMEOUT while waiting on socket (send)\0A\00", align 1
@.str.2 = private unnamed_addr constant [25 x i8] c"Can't send to clamd: %s\0A\00", align 1

; Function Attrs: nounwind uwtable
define internal i32 @onas_socket_wait(i32 noundef %0, i32 noundef %1, i64 noundef %2) #0 {
  %4 = alloca i32, align 4
  %5 = alloca i32, align 4
  %6 = alloca i64, align 8
  %7 = alloca %struct.timeval, align 8
  %8 = alloca %struct.fd_set, align 8
  %9 = alloca %struct.fd_set, align 8
  %10 = alloca %struct.fd_set, align 8
  %11 = alloca i32, align 4
  %12 = alloca i32, align 4
  %13 = alloca ptr, align 8
  %14 = alloca i32, align 4
  %15 = alloca ptr, align 8
  %16 = alloca i32, align 4
  %17 = alloca ptr, align 8
  store i32 %0, ptr %4, align 4, !tbaa !10
  store i32 %1, ptr %5, align 4, !tbaa !10
  store i64 %2, ptr %6, align 8, !tbaa !8
  call void @llvm.lifetime.start.p0(i64 16, ptr %7) #7
  call void @llvm.lifetime.start.p0(i64 128, ptr %8) #7
  call void @llvm.lifetime.start.p0(i64 128, ptr %9) #7
  call void @llvm.lifetime.start.p0(i64 128, ptr %10) #7
  call void @llvm.lifetime.start.p0(i64 4, ptr %11) #7
  %18 = load i64, ptr %6, align 8, !tbaa !8
  %19 = udiv i64 %18, 1000
  %20 = getelementptr inbounds nuw %struct.timeval, ptr %7, i32 0, i32 0
  store i64 %19, ptr %20, align 8, !tbaa !12
  %21 = load i64, ptr %6, align 8, !tbaa !8
  %22 = urem i64 %21, 1000
  %23 = mul i64 %22, 1000
  %24 = getelementptr inbounds nuw %struct.timeval, ptr %7, i32 0, i32 1
  store i64 %23, ptr %24, align 8, !tbaa !14
  br label %25

25:                                               ; preds = %3
  call void @llvm.lifetime.start.p0(i64 4, ptr %12) #7
  call void @llvm.lifetime.start.p0(i64 8, ptr %13) #7
  store ptr %8, ptr %13, align 8, !tbaa !4
  store i32 0, ptr %12, align 4, !tbaa !10
  br label %26

26:                                               ; preds = %36, %25
  %27 = load i32, ptr %12, align 4, !tbaa !10
  %28 = zext i32 %27 to i64
  %29 = icmp ult i64 %28, 16
  br i1 %29, label %30, label %39

30:                                               ; preds = %26
  %31 = load ptr, ptr %13, align 8, !tbaa !4
  %32 = getelementptr inbounds nuw %struct.fd_set, ptr %31, i32 0, i32 0
  %33 = load i32, ptr %12, align 4, !tbaa !10
  %34 = zext i32 %33 to i64
  %35 = getelementptr inbounds nuw [16 x i64], ptr %32, i64 0, i64 %34
  store i64 0, ptr %35, align 8, !tbaa !8
  br label %36

36:                                               ; preds = %30
  %37 = load i32, ptr %12, align 4, !tbaa !10
  %38 = add i32 %37, 1
  store i32 %38, ptr %12, align 4, !tbaa !10
  br label %26

39:                                               ; preds = %26
  call void @llvm.lifetime.end.p0(i64 8, ptr %13) #7
  call void @llvm.lifetime.end.p0(i64 4, ptr %12) #7
  br label %40

40:                                               ; preds = %39
  br label %41

41:                                               ; preds = %40
  br label %42

42:                                               ; preds = %41
  call void @llvm.lifetime.start.p0(i64 4, ptr %14) #7
  call void @llvm.lifetime.start.p0(i64 8, ptr %15) #7
  store ptr %9, ptr %15, align 8, !tbaa !4
  store i32 0, ptr %14, align 4, !tbaa !10
  br label %43

43:                                               ; preds = %53, %42
  %44 = load i32, ptr %14, align 4, !tbaa !10
  %45 = zext i32 %44 to i64
  %46 = icmp ult i64 %45, 16
  br i1 %46, label %47, label %56

47:                                               ; preds = %43
  %48 = load ptr, ptr %15, align 8, !tbaa !4
  %49 = getelementptr inbounds nuw %struct.fd_set, ptr %48, i32 0, i32 0
  %50 = load i32, ptr %14, align 4, !tbaa !10
  %51 = zext i32 %50 to i64
  %52 = getelementptr inbounds nuw [16 x i64], ptr %49, i64 0, i64 %51
  store i64 0, ptr %52, align 8, !tbaa !8
  br label %53

53:                                               ; preds = %47
  %54 = load i32, ptr %14, align 4, !tbaa !10
  %55 = add i32 %54, 1
  store i32 %55, ptr %14, align 4, !tbaa !10
  br label %43

56:                                               ; preds = %43
  call void @llvm.lifetime.end.p0(i64 8, ptr %15) #7
  call void @llvm.lifetime.end.p0(i64 4, ptr %14) #7
  br label %57

57:                                               ; preds = %56
  br label %58

58:                                               ; preds = %57
  br label %59

59:                                               ; preds = %58
  call void @llvm.lifetime.start.p0(i64 4, ptr %16) #7
  call void @llvm.lifetime.start.p0(i64 8, ptr %17) #7
  store ptr %10, ptr %17, align 8, !tbaa !4
  store i32 0, ptr %16, align 4, !tbaa !10
  br label %60

60:                                               ; preds = %70, %59
  %61 = load i32, ptr %16, align 4, !tbaa !10
  %62 = zext i32 %61 to i64
  %63 = icmp ult i64 %62, 16
  br i1 %63, label %64, label %73

64:                                               ; preds = %60
  %65 = load ptr, ptr %17, align 8, !tbaa !4
  %66 = getelementptr inbounds nuw %struct.fd_set, ptr %65, i32 0, i32 0
  %67 = load i32, ptr %16, align 4, !tbaa !10
  %68 = zext i32 %67 to i64
  %69 = getelementptr inbounds nuw [16 x i64], ptr %66, i64 0, i64 %68
  store i64 0, ptr %69, align 8, !tbaa !8
  br label %70

70:                                               ; preds = %64
  %71 = load i32, ptr %16, align 4, !tbaa !10
  %72 = add i32 %71, 1
  store i32 %72, ptr %16, align 4, !tbaa !10
  br label %60

73:                                               ; preds = %60
  call void @llvm.lifetime.end.p0(i64 8, ptr %17) #7
  call void @llvm.lifetime.end.p0(i64 4, ptr %16) #7
  br label %74

74:                                               ; preds = %73
  br label %75

75:                                               ; preds = %74
  %76 = load i32, ptr %4, align 4, !tbaa !10
  %77 = srem i32 %76, 64
  %78 = zext i32 %77 to i64
  %79 = shl i64 1, %78
  %80 = getelementptr inbounds nuw %struct.fd_set, ptr %10, i32 0, i32 0
  %81 = load i32, ptr %4, align 4, !tbaa !10
  %82 = sdiv i32 %81, 64
  %83 = sext i32 %82 to i64
  %84 = getelementptr inbounds [16 x i64], ptr %80, i64 0, i64 %83
  %85 = load i64, ptr %84, align 8, !tbaa !8
  %86 = or i64 %85, %79
  store i64 %86, ptr %84, align 8, !tbaa !8
  %87 = load i32, ptr %5, align 4, !tbaa !10
  %88 = icmp ne i32 %87, 0
  br i1 %88, label %89, label %101

89:                                               ; preds = %75
  %90 = load i32, ptr %4, align 4, !tbaa !10
  %91 = srem i32 %90, 64
  %92 = zext i32 %91 to i64
  %93 = shl i64 1, %92
  %94 = getelementptr inbounds nuw %struct.fd_set, ptr %8, i32 0, i32 0
  %95 = load i32, ptr %4, align 4, !tbaa !10
  %96 = sdiv i32 %95, 64
  %97 = sext i32 %96 to i64
  %98 = getelementptr inbounds [16 x i64], ptr %94, i64 0, i64 %97
  %99 = load i64, ptr %98, align 8, !tbaa !8
  %100 = or i64 %99, %93
  store i64 %100, ptr %98, align 8, !tbaa !8
  br label %113

101:                                              ; preds = %75
  %102 = load i32, ptr %4, align 4, !tbaa !10
  %103 = srem i32 %102, 64
  %104 = zext i32 %103 to i64
  %105 = shl i64 1, %104
  %106 = getelementptr inbounds nuw %struct.fd_set, ptr %9, i32 0, i32 0
  %107 = load i32, ptr %4, align 4, !tbaa !10
  %108 = sdiv i32 %107, 64
  %109 = sext i32 %108 to i64
  %110 = getelementptr inbounds [16 x i64], ptr %106, i64 0, i64 %109
  %111 = load i64, ptr %110, align 8, !tbaa !8
  %112 = or i64 %111, %105
  store i64 %112, ptr %110, align 8, !tbaa !8
  br label %113

113:                                              ; preds = %101, %89
  %114 = load i32, ptr %4, align 4, !tbaa !10
  %115 = add nsw i32 %114, 1
  %116 = call i32 @select(i32 noundef %115, ptr noundef %8, ptr noundef %9, ptr noundef %10, ptr noundef %7)
  store i32 %116, ptr %11, align 4, !tbaa !10
  %117 = load i32, ptr %11, align 4, !tbaa !10
  call void @llvm.lifetime.end.p0(i64 4, ptr %11) #7
  call void @llvm.lifetime.end.p0(i64 128, ptr %10) #7
  call void @llvm.lifetime.end.p0(i64 128, ptr %9) #7
  call void @llvm.lifetime.end.p0(i64 128, ptr %8) #7
  call void @llvm.lifetime.end.p0(i64 16, ptr %7) #7
  ret i32 %117
}

; Function Attrs: nounwind uwtable
define dso_local i32 @onas_sendln(ptr noundef %0, ptr noundef %1, i64 noundef %2, i64 noundef %3) #0 {
  %5 = alloca i32, align 4
  %6 = alloca ptr, align 8
  %7 = alloca ptr, align 8
  %8 = alloca i64, align 8
  %9 = alloca i64, align 8
  %10 = alloca i64, align 8
  %11 = alloca i32, align 4
  %12 = alloca i32, align 4
  %13 = alloca i32, align 4
  store ptr %0, ptr %6, align 8, !tbaa !4
  store ptr %1, ptr %7, align 8, !tbaa !4
  store i64 %2, ptr %8, align 8, !tbaa !8
  store i64 %3, ptr %9, align 8, !tbaa !8
  call void @llvm.lifetime.start.p0(i64 8, ptr %10) #7
  store i64 0, ptr %10, align 8, !tbaa !8
  call void @llvm.lifetime.start.p0(i64 4, ptr %11) #7
  call void @llvm.lifetime.start.p0(i64 4, ptr %12) #7
  %14 = load ptr, ptr %6, align 8, !tbaa !4
  %15 = call i32 (ptr, i32, ...) @curl_easy_getinfo(ptr noundef %14, i32 noundef 5242924, ptr noundef %12)
  store i32 %15, ptr %11, align 4, !tbaa !10
  %16 = load i32, ptr %11, align 4, !tbaa !10
  %17 = icmp ne i32 0, %16
  br i1 %17, label %18, label %22

18:                                               ; preds = %4
  %19 = load i32, ptr %11, align 4, !tbaa !10
  %20 = call ptr @curl_easy_strerror(i32 noundef %19)
  %21 = call i32 (i32, ptr, ...) @logg(i32 noundef 5, ptr noundef @.str, ptr noundef %20)
  store i32 1, ptr %5, align 4
  store i32 1, ptr %13, align 4
  br label %80

22:                                               ; preds = %4
  br label %23

23:                                               ; preds = %72, %55, %22
  %24 = load i64, ptr %8, align 8, !tbaa !8
  %25 = icmp ne i64 %24, 0
  br i1 %25, label %26, label %79

26:                                               ; preds = %23
  br label %27

27:                                               ; preds = %42, %26
  %28 = load ptr, ptr %6, align 8, !tbaa !4
  %29 = load ptr, ptr %7, align 8, !tbaa !4
  %30 = load i64, ptr %8, align 8, !tbaa !8
  %31 = call i32 @curl_easy_send(ptr noundef %28, ptr noundef %29, i64 noundef %30, ptr noundef %10)
  store i32 %31, ptr %11, align 4, !tbaa !10
  %32 = load i32, ptr %11, align 4, !tbaa !10
  %33 = icmp eq i32 81, %32
  br i1 %33, label %34, label %41

34:                                               ; preds = %27
  %35 = load i32, ptr %12, align 4, !tbaa !10
  %36 = load i64, ptr %9, align 8, !tbaa !8
  %37 = call i32 @onas_socket_wait(i32 noundef %35, i32 noundef 0, i64 noundef %36)
  %38 = icmp sle i32 %37, 0
  br i1 %38, label %39, label %41

39:                                               ; preds = %34
  %40 = call i32 (i32, ptr, ...) @logg(i32 noundef 5, ptr noundef @.str.1)
  store i32 1, ptr %5, align 4
  store i32 1, ptr %13, align 4
  br label %80

41:                                               ; preds = %34, %27
  br label %42

42:                                               ; preds = %41
  %43 = load i32, ptr %11, align 4, !tbaa !10
  %44 = icmp eq i32 81, %43
  br i1 %44, label %27, label %45

45:                                               ; preds = %42
  %46 = load i64, ptr %10, align 8, !tbaa !8
  %47 = icmp eq i64 %46, 0
  br i1 %47, label %48, label %72

48:                                               ; preds = %45
  %49 = load i64, ptr %10, align 8, !tbaa !8
  %50 = icmp ne i64 %49, 0
  br i1 %50, label %51, label %56

51:                                               ; preds = %48
  %52 = call ptr @__errno_location() #8
  %53 = load i32, ptr %52, align 4, !tbaa !10
  %54 = icmp eq i32 %53, 4
  br i1 %54, label %55, label %56

55:                                               ; preds = %51
  br label %23

56:                                               ; preds = %51, %48
  %57 = call ptr @__errno_location() #8
  %58 = load i32, ptr %57, align 4, !tbaa !10
  %59 = icmp eq i32 %58, 14
  br i1 %59, label %60, label %65

60:                                               ; preds = %56
  %61 = call ptr @__errno_location() #8
  %62 = load i32, ptr %61, align 4, !tbaa !10
  %63 = call ptr @strerror(i32 noundef %62) #7
  %64 = call i32 (i32, ptr, ...) @logg(i32 noundef 2, ptr noundef @.str.2, ptr noundef %63)
  br label %70

65:                                               ; preds = %56
  %66 = call ptr @__errno_location() #8
  %67 = load i32, ptr %66, align 4, !tbaa !10
  %68 = call ptr @strerror(i32 noundef %67) #7
  %69 = call i32 (i32, ptr, ...) @logg(i32 noundef 5, ptr noundef @.str.2, ptr noundef %68)
  br label %70

70:                                               ; preds = %65, %60
  br label %71

71:                                               ; preds = %70
  store i32 1, ptr %5, align 4
  store i32 1, ptr %13, align 4
  br label %80

72:                                               ; preds = %45
  %73 = load i64, ptr %10, align 8, !tbaa !8
  %74 = load ptr, ptr %7, align 8, !tbaa !4
  %75 = getelementptr inbounds nuw i8, ptr %74, i64 %73
  store ptr %75, ptr %7, align 8, !tbaa !4
  %76 = load i64, ptr %10, align 8, !tbaa !8
  %77 = load i64, ptr %8, align 8, !tbaa !8
  %78 = sub i64 %77, %76
  store i64 %78, ptr %8, align 8, !tbaa !8
  br label %23

79:                                               ; preds = %23
  store i32 0, ptr %5, align 4
  store i32 1, ptr %13, align 4
  br label %80

80:                                               ; preds = %79, %71, %39, %18
  call void @llvm.lifetime.end.p0(i64 4, ptr %12) #7
  call void @llvm.lifetime.end.p0(i64 4, ptr %11) #7
  call void @llvm.lifetime.end.p0(i64 8, ptr %10) #7
  %81 = load i32, ptr %5, align 4
  ret i32 %81
}