; Function Attrs: nounwind uwtable
define dso_local range(i32 0, 2) i32 @onas_sendln(ptr noundef %0, ptr noundef %1, i64 noundef %2, i64 noundef %3) local_unnamed_addr #0 {
  %5 = alloca %struct.timeval, align 8
  %6 = alloca %struct.fd_set, align 8
  %7 = alloca %struct.fd_set, align 8
  %8 = alloca %struct.fd_set, align 8
  %9 = alloca i64, align 8
  %10 = alloca i32, align 4
  call void @llvm.lifetime.start.p0(i64 8, ptr nonnull %9) #9
  store i64 0, ptr %9, align 8, !tbaa !4
  call void @llvm.lifetime.start.p0(i64 4, ptr nonnull %10) #9
  %11 = call i32 (ptr, i32, ...) @curl_easy_getinfo(ptr noundef %0, i32 noundef 5242924, ptr noundef nonnull %10) #9
  %.not = icmp eq i32 %11, 0
  br i1 %.not, label %.preheader18, label %16

.preheader18:                                     ; preds = %4
  %.not1719 = icmp eq i64 %2, 0
  br i1 %.not1719, label %.loopexit, label %.preheader.lr.ph

.preheader.lr.ph:                                 ; preds = %.preheader18
  %12 = udiv i64 %3, 1000
  %13 = urem i64 %3, 1000
  %14 = mul nuw nsw i64 %13, 1000
  %15 = getelementptr inbounds nuw i8, ptr %5, i64 8
  br label %.preheader

16:                                               ; preds = %4
  %17 = call ptr @curl_easy_strerror(i32 noundef %11) #9
  %18 = call i32 (i32, ptr, ...) @logg(i32 noundef 5, ptr noundef nonnull @.str, ptr noundef %17) #9
  br label %.loopexit

.preheader:                                       ; preds = %.preheader.lr.ph, %52
  %.01221 = phi i64 [ %2, %.preheader.lr.ph ], [ %54, %52 ]
  %.01320 = phi ptr [ %1, %.preheader.lr.ph ], [ %53, %52 ]
  br label %19

19:                                               ; preds = %.preheader, %22
  %20 = call i32 @curl_easy_send(ptr noundef %0, ptr noundef %.01320, i64 noundef %.01221, ptr noundef nonnull %9) #9
  %21 = icmp eq i32 %20, 81
  br i1 %21, label %22, label %.critedge

22:                                               ; preds = %19
  %23 = load i32, ptr %10, align 4, !tbaa !8
  call void @llvm.lifetime.start.p0(i64 16, ptr nonnull %5) #9
  call void @llvm.lifetime.start.p0(i64 128, ptr nonnull %6) #9
  call void @llvm.lifetime.start.p0(i64 128, ptr nonnull %7) #9
  call void @llvm.lifetime.start.p0(i64 128, ptr nonnull %8) #9
  store i64 %12, ptr %5, align 8, !tbaa !10
  store i64 %14, ptr %15, align 8, !tbaa !12
  call void @llvm.memset.p0.i64(ptr noundef nonnull align 8 dereferenceable(128) %6, i8 0, i64 128, i1 false), !tbaa !4
  call void @llvm.memset.p0.i64(ptr noundef nonnull align 8 dereferenceable(128) %7, i8 0, i64 128, i1 false), !tbaa !4
  call void @llvm.memset.p0.i64(ptr noundef nonnull align 8 dereferenceable(128) %8, i8 0, i64 128, i1 false), !tbaa !4
  %24 = srem i32 %23, 64
  %25 = zext nneg i32 %24 to i64
  %26 = shl nuw i64 1, %25
  %27 = sdiv i32 %23, 64
  %28 = sext i32 %27 to i64
  %29 = getelementptr inbounds [16 x i64], ptr %8, i64 0, i64 %28
  %30 = load i64, ptr %29, align 8, !tbaa !4
  %31 = or i64 %30, %26
  store i64 %31, ptr %29, align 8, !tbaa !4
  %32 = getelementptr inbounds [16 x i64], ptr %7, i64 0, i64 %28
  %33 = load i64, ptr %32, align 8, !tbaa !4
  %34 = or i64 %33, %26
  store i64 %34, ptr %32, align 8, !tbaa !4
  %35 = add nsw i32 %23, 1
  %36 = call i32 @select(i32 noundef %35, ptr noundef nonnull %6, ptr noundef nonnull %7, ptr noundef nonnull %8, ptr noundef nonnull %5) #9
  call void @llvm.lifetime.end.p0(i64 128, ptr nonnull %8) #9
  call void @llvm.lifetime.end.p0(i64 128, ptr nonnull %7) #9
  call void @llvm.lifetime.end.p0(i64 128, ptr nonnull %6) #9
  call void @llvm.lifetime.end.p0(i64 16, ptr nonnull %5) #9
  %37 = icmp slt i32 %36, 1
  br i1 %37, label %38, label %19

38:                                               ; preds = %22
  %39 = call i32 (i32, ptr, ...) @logg(i32 noundef 5, ptr noundef nonnull @.str.1) #9
  br label %.loopexit

.critedge:                                        ; preds = %19
  %40 = load i64, ptr %9, align 8, !tbaa !4
  %41 = icmp eq i64 %40, 0
  br i1 %41, label %42, label %52

42:                                               ; preds = %.critedge
  %43 = tail call ptr @__errno_location() #10
  %44 = load i32, ptr %43, align 4, !tbaa !8
  %45 = icmp eq i32 %44, 14
  br i1 %45, label %46, label %49

46:                                               ; preds = %42
  %47 = call ptr @strerror(i32 noundef 14) #9
  %48 = call i32 (i32, ptr, ...) @logg(i32 noundef 2, ptr noundef nonnull @.str.2, ptr noundef %47) #9
  br label %.loopexit

49:                                               ; preds = %42
  %50 = call ptr @strerror(i32 noundef %44) #9
  %51 = call i32 (i32, ptr, ...) @logg(i32 noundef 5, ptr noundef nonnull @.str.2, ptr noundef %50) #9
  br label %.loopexit

52:                                               ; preds = %.critedge
  %53 = getelementptr inbounds nuw i8, ptr %.01320, i64 %40
  %54 = sub i64 %.01221, %40
  %.not17 = icmp eq i64 %54, 0
  br i1 %.not17, label %.loopexit, label %.preheader

.loopexit:                                        ; preds = %52, %.preheader18, %49, %46, %38, %16
  %.0 = phi i32 [ 1, %16 ], [ 1, %38 ], [ 1, %46 ], [ 1, %49 ], [ 0, %.preheader18 ], [ 0, %52 ]
  call void @llvm.lifetime.end.p0(i64 4, ptr nonnull %10) #9
  call void @llvm.lifetime.end.p0(i64 8, ptr nonnull %9) #9
  ret i32 %.0
}